target datalayout = "e-m:e-p270:32:32-p271:32:32-p272:64:64-i64:64-i128:128-f80:128-n8:16:32:64-S128"
target triple = "x86_64-pc-linux-gnu"

%"class.gmx::LocalTopologyChecker::Impl" = type <{ ptr, ptr, ptr, ptr, ptr, %"class.gmx::ArrayRef", %"class.std::function", i32, [4 x i8] }>
%"class.gmx::ArrayRef" = type { %"struct.gmx::ArrayRefIter", %"struct.gmx::ArrayRefIter" }
%"struct.gmx::ArrayRefIter" = type { ptr }
%"class.std::function" = type { %"class.std::_Function_base", ptr }
%"class.std::_Function_base" = type { %"union.std::_Any_data", ptr }
%"union.std::_Any_data" = type { %"union.std::_Nocopy_types" }
%"union.std::_Nocopy_types" = type { { i64, i64 } }

; Function Attrs: mustprogress nounwind uwtable
define linkonce_odr void @_ZNSt14_Function_baseC2Ev(ptr noundef nonnull align 8 dereferenceable(24) %0) unnamed_addr #1 comdat align 2 {
  %2 = alloca ptr, align 8
  store ptr %0, ptr %2, align 8, !tbaa !45
  %3 = load ptr, ptr %2, align 8
  %4 = getelementptr inbounds nuw %"class.std::_Function_base", ptr %3, i32 0, i32 0
  store ptr null, ptr %4, align 8, !tbaa !47
  %5 = getelementptr inbounds nuw %"class.std::_Function_base", ptr %3, i32 0, i32 1
  store ptr null, ptr %5, align 8, !tbaa !48
  ret void
}

; Function Attrs: mustprogress nounwind uwtable
define linkonce_odr void @_ZN3gmx12ArrayRefIterIdEC2EPd(ptr noundef nonnull align 8 dereferenceable(8) %0, ptr noundef %1) unnamed_addr #1 comdat align 2 {
  %3 = alloca ptr, align 8
  %4 = alloca ptr, align 8
  store ptr %0, ptr %3, align 8, !tbaa !41
  store ptr %1, ptr %4, align 8, !tbaa !43
  %5 = load ptr, ptr %3, align 8
  %6 = getelementptr inbounds nuw %"struct.gmx::ArrayRefIter", ptr %5, i32 0, i32 0
  %7 = load ptr, ptr %4, align 8, !tbaa !43
  store ptr %7, ptr %6, align 8, !tbaa !44
  ret void
}

; Function Attrs: mustprogress nounwind uwtable
define linkonce_odr void @_ZNSt14_Function_baseD2Ev(ptr noundef nonnull align 8 dereferenceable(24) %0) unnamed_addr #1 comdat align 2 personality ptr @__gxx_personality_v0 {
  %2 = alloca ptr, align 8
  store ptr %0, ptr %2, align 8, !tbaa !45
  %3 = load ptr, ptr %2, align 8
  %4 = getelementptr inbounds nuw %"class.std::_Function_base", ptr %3, i32 0, i32 1
  %5 = load ptr, ptr %4, align 8, !tbaa !48
  %6 = icmp ne ptr %5, null
  br i1 %6, label %7, label %14

7:                                                ; preds = %1
  %8 = getelementptr inbounds nuw %"class.std::_Function_base", ptr %3, i32 0, i32 1
  %9 = load ptr, ptr %8, align 8, !tbaa !48
  %10 = getelementptr inbounds nuw %"class.std::_Function_base", ptr %3, i32 0, i32 0
  %11 = getelementptr inbounds nuw %"class.std::_Function_base", ptr %3, i32 0, i32 0
  %12 = invoke noundef zeroext i1 %9(ptr noundef nonnull align 8 dereferenceable(16) %10, ptr noundef nonnull align 8 dereferenceable(16) %11, i32 noundef 3)
          to label %13 unwind label %15

13:                                               ; preds = %7
  br label %14

14:                                               ; preds = %13, %1
  ret void

15:                                               ; preds = %7
  %16 = landingpad { ptr, i32 }
          catch ptr null
  %17 = extractvalue { ptr, i32 } %16, 0
  call void @__clang_call_terminate(ptr %17) #18
  unreachable
}

; Function Attrs: mustprogress uwtable
define internal noundef i32 @_ZN3gmxL42computeExpectedNumGlobalBondedInteractionsERK10gmx_mtop_tNS_16DDBondedCheckingEb(ptr noundef nonnull align 8 dereferenceable(768) %0, i1 noundef zeroext %1, i1 noundef zeroext %2) #0 {
  %4 = alloca ptr, align 8
  %5 = alloca i8, align 1
  %6 = alloca i8, align 1
  %7 = alloca i32, align 4
  store ptr %0, ptr %4, align 8, !tbaa !13
  %8 = zext i1 %1 to i8
  store i8 %8, ptr %5, align 1, !tbaa !15
  %9 = zext i1 %2 to i8
  store i8 %9, ptr %6, align 1, !tbaa !21
  call void @llvm.lifetime.start.p0(i64 4, ptr %7) #17
  %10 = load ptr, ptr %4, align 8, !tbaa !13
  %11 = call noundef i32 @_Z26gmx_mtop_interaction_countRK10gmx_mtop_tj(ptr noundef nonnull align 8 dereferenceable(768) %10, i32 noundef 1)
  store i32 %11, ptr %7, align 4, !tbaa !40
  %12 = load i8, ptr %5, align 1, !tbaa !15, !range !32, !noundef !33
  %13 = trunc i8 %12 to i1
  %14 = icmp eq i1 %13, false
  br i1 %14, label %15, label %20

15:                                               ; preds = %3
  %16 = load ptr, ptr %4, align 8, !tbaa !13
  %17 = call noundef i32 @_Z26gmx_mtop_interaction_countRK10gmx_mtop_tj(ptr noundef nonnull align 8 dereferenceable(768) %16, i32 noundef 513)
  %18 = load i32, ptr %7, align 4, !tbaa !40
  %19 = sub nsw i32 %18, %17
  store i32 %19, ptr %7, align 4, !tbaa !40
  br label %20

20:                                               ; preds = %15, %3
  %21 = load i8, ptr %6, align 1, !tbaa !21, !range !32, !noundef !33
  %22 = trunc i8 %21 to i1
  br i1 %22, label %23, label %28

23:                                               ; preds = %20
  %24 = load ptr, ptr %4, align 8, !tbaa !13
  %25 = call noundef i32 @_Z26gmx_mtop_interaction_countRK10gmx_mtop_tj(ptr noundef nonnull align 8 dereferenceable(768) %24, i32 noundef 4)
  %26 = load i32, ptr %7, align 4, !tbaa !40
  %27 = add nsw i32 %26, %25
  store i32 %27, ptr %7, align 4, !tbaa !40
  br label %28

28:                                               ; preds = %23, %20
  %29 = load i32, ptr %7, align 4, !tbaa !40
  call void @llvm.lifetime.end.p0(i64 4, ptr %7) #17
  ret i32 %29
}

; Function Attrs: mustprogress nounwind uwtable
define linkonce_odr void @_ZNSt8functionIFN3gmx24ObservablesReducerStatusENS0_20ReductionRequirementEEEC2Ev(ptr noundef nonnull align 8 dereferenceable(32) %0) unnamed_addr #1 comdat align 2 {
  %2 = alloca ptr, align 8
  store ptr %0, ptr %2, align 8, !tbaa !37
  %3 = load ptr, ptr %2, align 8
  %4 = getelementptr inbounds i8, ptr %3, i64 0
  call void @llvm.memset.p0.i64(ptr align 8 %4, i8 0, i64 24, i1 false)
  call void @_ZNSt14_Function_baseC2Ev(ptr noundef nonnull align 8 dereferenceable(24) %3) #17
  %5 = getelementptr inbounds nuw %"class.std::function", ptr %3, i32 0, i32 1
  store ptr null, ptr %5, align 8, !tbaa !39
  ret void
}

; Function Attrs: mustprogress nounwind uwtable
define linkonce_odr void @_ZN3gmx8ArrayRefIdEC2Ev(ptr noundef nonnull align 8 dereferenceable(16) %0) unnamed_addr #1 comdat align 2 {
  %2 = alloca ptr, align 8
  store ptr %0, ptr %2, align 8, !tbaa !35
  %3 = load ptr, ptr %2, align 8
  %4 = getelementptr inbounds nuw %"class.gmx::ArrayRef", ptr %3, i32 0, i32 0
  call void @_ZN3gmx12ArrayRefIterIdEC2EPd(ptr noundef nonnull align 8 dereferenceable(8) %4, ptr noundef null) #17
  %5 = getelementptr inbounds nuw %"class.gmx::ArrayRef", ptr %3, i32 0, i32 1
  call void @_ZN3gmx12ArrayRefIterIdEC2EPd(ptr noundef nonnull align 8 dereferenceable(8) %5, ptr noundef null) #17
  ret void
}

; Function Attrs: mustprogress uwtable
define void @_ZN3gmx20LocalTopologyChecker4ImplC2ERKNS_8MDLoggerEPK9t_commrecRK10gmx_mtop_tNS_16DDBondedCheckingERK14gmx_localtop_tPK7t_stateb(ptr noundef nonnull align 8 dereferenceable(92) %0, ptr noundef nonnull align 8 dereferenceable(40) %1, ptr noundef %2, ptr noundef nonnull align 8 dereferenceable(768) %3, i1 noundef zeroext %4, ptr noundef nonnull align 8 dereferenceable(2808) %5, ptr noundef %6, i1 noundef zeroext %7) unnamed_addr #0 align 2 personality ptr @__gxx_personality_v0 {
  %9 = alloca ptr, align 8
  %10 = alloca ptr, align 8
  %11 = alloca ptr, align 8
  %12 = alloca ptr, align 8
  %13 = alloca i8, align 1
  %14 = alloca ptr, align 8
  %15 = alloca ptr, align 8
  %16 = alloca i8, align 1
  %17 = alloca ptr, align 8
  %18 = alloca i32, align 4
  store ptr %0, ptr %9, align 8, !tbaa !4
  store ptr %1, ptr %10, align 8, !tbaa !9
  store ptr %2, ptr %11, align 8, !tbaa !11
  store ptr %3, ptr %12, align 8, !tbaa !13
  %19 = zext i1 %4 to i8
  store i8 %19, ptr %13, align 1, !tbaa !15
  store ptr %5, ptr %14, align 8, !tbaa !17
  store ptr %6, ptr %15, align 8, !tbaa !19
  %20 = zext i1 %7 to i8
  store i8 %20, ptr %16, align 1, !tbaa !21
  %21 = load ptr, ptr %9, align 8
  %22 = getelementptr inbounds nuw %"class.gmx::LocalTopologyChecker::Impl", ptr %21, i32 0, i32 0
  %23 = load ptr, ptr %10, align 8, !tbaa !9
  store ptr %23, ptr %22, align 8, !tbaa !9
  %24 = getelementptr inbounds nuw %"class.gmx::LocalTopologyChecker::Impl", ptr %21, i32 0, i32 1
  %25 = load ptr, ptr %11, align 8, !tbaa !11
  store ptr %25, ptr %24, align 8, !tbaa !23
  %26 = getelementptr inbounds nuw %"class.gmx::LocalTopologyChecker::Impl", ptr %21, i32 0, i32 2
  %27 = load ptr, ptr %12, align 8, !tbaa !13
  store ptr %27, ptr %26, align 8, !tbaa !13
  %28 = getelementptr inbounds nuw %"class.gmx::LocalTopologyChecker::Impl", ptr %21, i32 0, i32 3
  %29 = load ptr, ptr %14, align 8, !tbaa !17
  store ptr %29, ptr %28, align 8, !tbaa !17
  %30 = getelementptr inbounds nuw %"class.gmx::LocalTopologyChecker::Impl", ptr %21, i32 0, i32 4
  %31 = load ptr, ptr %15, align 8, !tbaa !19
  store ptr %31, ptr %30, align 8, !tbaa !31
  %32 = getelementptr inbounds nuw %"class.gmx::LocalTopologyChecker::Impl", ptr %21, i32 0, i32 5
  call void @_ZN3gmx8ArrayRefIdEC2Ev(ptr noundef nonnull align 8 dereferenceable(16) %32)
  %33 = getelementptr inbounds nuw %"class.gmx::LocalTopologyChecker::Impl", ptr %21, i32 0, i32 6
  call void @_ZNSt8functionIFN3gmx24ObservablesReducerStatusENS0_20ReductionRequirementEEEC2Ev(ptr noundef nonnull align 8 dereferenceable(32) %33) #17
  %34 = getelementptr inbounds nuw %"class.gmx::LocalTopologyChecker::Impl", ptr %21, i32 0, i32 7
  %35 = load ptr, ptr %12, align 8, !tbaa !13
  %36 = load i8, ptr %13, align 1, !tbaa !15, !range !32, !noundef !33
  %37 = trunc i8 %36 to i1
  %38 = load i8, ptr %16, align 1, !tbaa !21, !range !32, !noundef !33
  %39 = trunc i8 %38 to i1
  %40 = invoke noundef i32 @_ZN3gmxL42computeExpectedNumGlobalBondedInteractionsERK10gmx_mtop_tNS_16DDBondedCheckingEb(ptr noundef nonnull align 8 dereferenceable(768) %35, i1 noundef zeroext %37, i1 noundef zeroext %39)
          to label %41 unwind label %42

41:                                               ; preds = %8
  store i32 %40, ptr %34, align 8, !tbaa !34
  ret void

42:                                               ; preds = %8
  %43 = landingpad { ptr, i32 }
          cleanup
  %44 = extractvalue { ptr, i32 } %43, 0
  store ptr %44, ptr %17, align 8
  %45 = extractvalue { ptr, i32 } %43, 1
  store i32 %45, ptr %18, align 4
  call void @_ZNSt14_Function_baseD2Ev(ptr noundef nonnull align 8 dereferenceable(32) %33) #17
  br label %46

46:                                               ; preds = %42
  %47 = load ptr, ptr %17, align 8
  %48 = load i32, ptr %18, align 4
  %49 = insertvalue { ptr, i32 } poison, ptr %47, 0
  %50 = insertvalue { ptr, i32 } %49, i32 %48, 1
  resume { ptr, i32 } %50
}