; Function Attrs: mustprogress uwtable
define void @_ZN3gmx20LocalTopologyChecker4ImplC2ERKNS_8MDLoggerEPK9t_commrecRK10gmx_mtop_tNS_16DDBondedCheckingERK14gmx_localtop_tPK7t_stateb(ptr noundef nonnull align 8 dereferenceable(92) initializes((0, 88)) %0, ptr noundef nonnull align 8 dereferenceable(40) %1, ptr noundef %2, ptr noundef nonnull align 8 dereferenceable(768) %3, i1 noundef zeroext %4, ptr noundef nonnull align 8 dereferenceable(2808) %5, ptr noundef %6, i1 noundef zeroext %7) unnamed_addr #0 align 2 personality ptr @__gxx_personality_v0 {
  store ptr %1, ptr %0, align 8, !tbaa !4
  %9 = getelementptr inbounds nuw i8, ptr %0, i64 8
  store ptr %2, ptr %9, align 8, !tbaa !9
  %10 = getelementptr inbounds nuw i8, ptr %0, i64 16
  store ptr %3, ptr %10, align 8, !tbaa !21
  %11 = getelementptr inbounds nuw i8, ptr %0, i64 24
  store ptr %5, ptr %11, align 8, !tbaa !22
  %12 = getelementptr inbounds nuw i8, ptr %0, i64 32
  store ptr %6, ptr %12, align 8, !tbaa !23
  %13 = getelementptr inbounds nuw i8, ptr %0, i64 40
  %14 = getelementptr inbounds nuw i8, ptr %0, i64 56
  tail call void @llvm.memset.p0.i64(ptr noundef nonnull align 8 dereferenceable(48) %13, i8 0, i64 48, i1 false)
  %15 = invoke noundef i32 @_Z26gmx_mtop_interaction_countRK10gmx_mtop_tj(ptr noundef nonnull align 8 dereferenceable(768) %3, i32 noundef 1)
          to label %.noexc unwind label %24

.noexc:                                           ; preds = %8
  br i1 %4, label %19, label %16

16:                                               ; preds = %.noexc
  %17 = invoke noundef i32 @_Z26gmx_mtop_interaction_countRK10gmx_mtop_tj(ptr noundef nonnull align 8 dereferenceable(768) %3, i32 noundef 513)
          to label %.noexc10 unwind label %24

.noexc10:                                         ; preds = %16
  %18 = sub nsw i32 %15, %17
  br label %19

19:                                               ; preds = %.noexc10, %.noexc
  %.0.i = phi i32 [ %18, %.noexc10 ], [ %15, %.noexc ]
  br i1 %7, label %20, label %_ZN3gmxL42computeExpectedNumGlobalBondedInteractionsERK10gmx_mtop_tNS_16DDBondedCheckingEb.exit

20:                                               ; preds = %19
  %21 = invoke noundef i32 @_Z26gmx_mtop_interaction_countRK10gmx_mtop_tj(ptr noundef nonnull align 8 dereferenceable(768) %3, i32 noundef 4)
          to label %.noexc11 unwind label %24

.noexc11:                                         ; preds = %20
  %22 = add nsw i32 %21, %.0.i
  br label %_ZN3gmxL42computeExpectedNumGlobalBondedInteractionsERK10gmx_mtop_tNS_16DDBondedCheckingEb.exit

_ZN3gmxL42computeExpectedNumGlobalBondedInteractionsERK10gmx_mtop_tNS_16DDBondedCheckingEb.exit: ; preds = %.noexc11, %19
  %.1.i = phi i32 [ %22, %.noexc11 ], [ %.0.i, %19 ]
  %23 = getelementptr inbounds nuw i8, ptr %0, i64 88
  store i32 %.1.i, ptr %23, align 8, !tbaa !24
  ret void

24:                                               ; preds = %20, %16, %8
  %25 = landingpad { ptr, i32 }
          cleanup
  %26 = getelementptr inbounds nuw i8, ptr %0, i64 72
  %27 = load ptr, ptr %26, align 8, !tbaa !25
  %.not.i = icmp eq ptr %27, null
  br i1 %.not.i, label %_ZNSt14_Function_baseD2Ev.exit, label %28

28:                                               ; preds = %24
  %29 = invoke noundef zeroext i1 %27(ptr noundef nonnull align 8 dereferenceable(32) %14, ptr noundef nonnull align 8 dereferenceable(32) %14, i32 noundef 3)
          to label %_ZNSt14_Function_baseD2Ev.exit unwind label %30

30:                                               ; preds = %28
  %31 = landingpad { ptr, i32 }
          catch ptr null
  %32 = extractvalue { ptr, i32 } %31, 0
  tail call void @__clang_call_terminate(ptr %32) #17
  unreachable

_ZNSt14_Function_baseD2Ev.exit:                   ; preds = %24, %28
  resume { ptr, i32 } %25
}